target datalayout = "e-m:e-p270:32:32-p271:32:32-p272:64:64-i64:64-i128:128-f80:128-n8:16:32:64-S128"
target triple = "x86_64-pc-linux-gnu"

%struct.BEValue = type { i8, i32, ptr, ptr, ptr }
%struct.Expr_ = type { ptr, %union.SourceSpan, i16, %union.anon.29 }
%union.SourceSpan = type { i64 }
%union.anon.29 = type { %struct.ExprAnySwitch }
%struct.ExprAnySwitch = type { i8, %union.anon.31 }
%union.anon.31 = type { %struct.anon.32 }
%struct.anon.32 = type { ptr, %union.SourceSpan, ptr }
%struct.ExprCall = type { %union.anon.33, i32, i16, ptr, %union.anon.34 }
%union.anon.33 = type { i32 }
%union.anon.34 = type { ptr }
%struct.GenContext_ = type { i8, ptr, ptr, ptr, ptr, ptr, ptr, ptr, ptr, ptr, ptr, ptr, ptr, ptr, ptr, ptr, ptr, ptr, ptr, ptr, ptr, ptr, ptr, ptr, ptr, ptr, ptr, ptr, ptr, ptr, ptr, ptr, ptr, %struct.anon.85, i32, i32, %struct.DebugContext, ptr, ptr, ptr, %struct.BEValue, i8, %union.SourceSpan, ptr, ptr, ptr, ptr }
%struct.anon.85 = type { ptr, ptr, ptr }
%struct.DebugContext = type { i16, ptr, ptr, %struct.DebugFile_, ptr, ptr, ptr, ptr }
%struct.DebugFile_ = type { i16, ptr }
%struct.Type_ = type { i32, ptr, ptr, ptr, %union.anon.101, ptr, ptr, %union.anon.103 }
%union.anon.101 = type { ptr }
%union.anon.103 = type { %struct.TypeFunction }
%struct.TypeFunction = type { ptr, ptr, ptr }
%struct.ExprConst = type { i16, %union.anon.38 }
%union.anon.38 = type { %struct.Int }
%struct.Int = type { %struct.Int128_, i32 }
%struct.Int128_ = type { i64, i64 }

@type_void = external global ptr, align 8
@type_anyptr = external global ptr, align 8
@type_usz = external global ptr, align 8
@.str.5 = private unnamed_addr constant [1 x i8] zeroinitializer, align 1

; Function Attrs: nounwind uwtable
define internal void @llvm_emit_any_make(ptr noundef %0, ptr noundef %1, ptr noundef %2) #0 {
  %4 = alloca ptr, align 8
  %5 = alloca i32, align 4
  %6 = alloca ptr, align 8
  %7 = alloca i32, align 4
  %8 = alloca ptr, align 8
  %9 = alloca ptr, align 8
  %10 = alloca i64, align 8
  %11 = alloca ptr, align 8
  %12 = alloca ptr, align 8
  %13 = alloca ptr, align 8
  %14 = alloca ptr, align 8
  %15 = alloca i32, align 4
  %16 = alloca ptr, align 8
  %17 = alloca ptr, align 8
  %18 = alloca ptr, align 8
  %19 = alloca i64, align 8
  %20 = alloca ptr, align 8
  %21 = alloca ptr, align 8
  %22 = alloca ptr, align 8
  %23 = alloca ptr, align 8
  %24 = alloca i32, align 4
  %25 = alloca ptr, align 8
  %26 = alloca ptr, align 8
  %27 = alloca ptr, align 8
  %28 = alloca ptr, align 8
  %29 = alloca ptr, align 8
  %30 = alloca ptr, align 8
  %31 = alloca ptr, align 8
  %32 = alloca ptr, align 8
  %33 = alloca ptr, align 8
  %34 = alloca ptr, align 8
  %35 = alloca ptr, align 8
  %36 = alloca %struct.BEValue, align 8
  %37 = alloca %struct.BEValue, align 8
  %38 = alloca ptr, align 8
  store ptr %0, ptr %31, align 8
  store ptr %1, ptr %32, align 8
  store ptr %2, ptr %33, align 8
  %39 = load ptr, ptr %33, align 8
  %40 = getelementptr inbounds %struct.Expr_, ptr %39, i32 0, i32 3
  %41 = getelementptr inbounds %struct.ExprCall, ptr %40, i32 0, i32 3
  %42 = load ptr, ptr %41, align 8
  store ptr %42, ptr %34, align 8
  %43 = load ptr, ptr %34, align 8
  %44 = getelementptr inbounds ptr, ptr %43, i64 1
  %45 = load ptr, ptr %44, align 8
  store ptr %45, ptr %35, align 8
  %46 = load ptr, ptr %35, align 8
  store ptr %46, ptr %30, align 8
  %47 = load ptr, ptr %30, align 8
  %48 = getelementptr inbounds %struct.Expr_, ptr %47, i32 0, i32 2
  %49 = load i16, ptr %48, align 8
  %50 = and i16 %49, 255
  %51 = zext i16 %50 to i32
  %52 = icmp eq i32 %51, 14
  br i1 %52, label %53, label %69

53:                                               ; preds = %3
  %54 = load ptr, ptr %35, align 8
  %55 = getelementptr inbounds %struct.Expr_, ptr %54, i32 0, i32 3
  %56 = getelementptr inbounds %struct.ExprConst, ptr %55, i32 0, i32 1
  %57 = load ptr, ptr %56, align 8
  %58 = load ptr, ptr @type_void, align 8
  %59 = icmp eq ptr %57, %58
  br i1 %59, label %60, label %69

60:                                               ; preds = %53
  %61 = load ptr, ptr %32, align 8
  %62 = load ptr, ptr %31, align 8
  %63 = load ptr, ptr @type_anyptr, align 8
  store ptr %62, ptr %28, align 8
  store ptr %63, ptr %29, align 8
  %64 = load ptr, ptr %28, align 8
  %65 = load ptr, ptr %29, align 8
  %66 = call ptr @llvm_get_type(ptr noundef %64, ptr noundef %65) #6
  %67 = call ptr @LLVMConstNull(ptr noundef %66) #6
  %68 = load ptr, ptr @type_anyptr, align 8
  call void @llvm_value_set(ptr noundef %61, ptr noundef %67, ptr noundef %68)
  br label %199

69:                                               ; preds = %53, %3
  %70 = load ptr, ptr %31, align 8
  %71 = load ptr, ptr %34, align 8
  %72 = getelementptr inbounds ptr, ptr %71, i64 0
  %73 = load ptr, ptr %72, align 8
  call void @llvm_emit_expr(ptr noundef %70, ptr noundef %36, ptr noundef %73)
  %74 = load ptr, ptr %31, align 8
  call void @llvm_value_rvalue(ptr noundef %74, ptr noundef %36)
  %75 = load ptr, ptr %31, align 8
  %76 = load ptr, ptr %35, align 8
  call void @llvm_emit_expr(ptr noundef %75, ptr noundef %37, ptr noundef %76)
  %77 = load ptr, ptr %31, align 8
  call void @llvm_value_rvalue(ptr noundef %77, ptr noundef %37)
  %78 = load ptr, ptr %31, align 8
  %79 = load ptr, ptr @type_anyptr, align 8
  store ptr %78, ptr %26, align 8
  store ptr %79, ptr %27, align 8
  %80 = load ptr, ptr %26, align 8
  %81 = load ptr, ptr %27, align 8
  %82 = call ptr @llvm_get_type(ptr noundef %80, ptr noundef %81) #6
  %83 = call ptr @LLVMGetUndef(ptr noundef %82) #6
  store ptr %83, ptr %38, align 8
  %84 = load ptr, ptr %31, align 8
  %85 = load ptr, ptr %38, align 8
  %86 = getelementptr inbounds %struct.BEValue, ptr %36, i32 0, i32 3
  %87 = load ptr, ptr %86, align 8
  store ptr %84, ptr %12, align 8
  store ptr %85, ptr %13, align 8
  store ptr %87, ptr %14, align 8
  store i32 0, ptr %15, align 4
  %88 = load ptr, ptr %13, align 8
  %89 = call ptr @LLVMTypeOf(ptr noundef %88) #6
  %90 = call i32 @LLVMGetTypeKind(ptr noundef %89) #6
  %91 = icmp eq i32 %90, 13
  br i1 %91, label %92, label %130

92:                                               ; preds = %69
  %93 = load ptr, ptr %12, align 8
  %94 = load ptr, ptr @type_usz, align 8
  %95 = load i32, ptr %15, align 4
  %96 = zext i32 %95 to i64
  store ptr %93, ptr %8, align 8
  store ptr %94, ptr %9, align 8
  store i64 %96, ptr %10, align 8
  %97 = load ptr, ptr %9, align 8
  %98 = call ptr @type_lowering(ptr noundef %97)
  store ptr %98, ptr %9, align 8
  %99 = load ptr, ptr %8, align 8
  %100 = load ptr, ptr %9, align 8
  %101 = call ptr @llvm_get_type(ptr noundef %99, ptr noundef %100) #6
  %102 = load i64, ptr %10, align 8
  %103 = load ptr, ptr %9, align 8
  store ptr %103, ptr %6, align 8
  %104 = load ptr, ptr %6, align 8
  %105 = load i32, ptr %104, align 8
  store i32 %105, ptr %7, align 4
  %106 = load i32, ptr %7, align 4
  %107 = icmp eq i32 %106, 31
  br i1 %107, label %108, label %113

108:                                              ; preds = %92
  %109 = load ptr, ptr %6, align 8
  %110 = getelementptr inbounds %struct.Type_, ptr %109, i32 0, i32 1
  %111 = load ptr, ptr %110, align 8
  %112 = load i32, ptr %111, align 8
  store i32 %112, ptr %7, align 4
  br label %113

113:                                              ; preds = %108, %92
  %114 = load i32, ptr %7, align 4
  %115 = icmp uge i32 %114, 3
  br i1 %115, label %116, label %119

116:                                              ; preds = %113
  %117 = load i32, ptr %7, align 4
  %118 = icmp ule i32 %117, 7
  br label %119

119:                                              ; preds = %116, %113
  %120 = phi i1 [ false, %113 ], [ %118, %116 ]
  %121 = zext i1 %120 to i32
  %122 = call ptr @LLVMConstInt(ptr noundef %101, i64 noundef %102, i32 noundef %121) #6
  store ptr %122, ptr %16, align 8
  %123 = load ptr, ptr %12, align 8
  %124 = getelementptr inbounds %struct.GenContext_, ptr %123, i32 0, i32 8
  %125 = load ptr, ptr %124, align 8
  %126 = load ptr, ptr %13, align 8
  %127 = load ptr, ptr %14, align 8
  %128 = load ptr, ptr %16, align 8
  %129 = call ptr @LLVMBuildInsertElement(ptr noundef %125, ptr noundef %126, ptr noundef %127, ptr noundef %128, ptr noundef @.str.5) #6
  store ptr %129, ptr %11, align 8
  br label %138

130:                                              ; preds = %69
  %131 = load ptr, ptr %12, align 8
  %132 = getelementptr inbounds %struct.GenContext_, ptr %131, i32 0, i32 8
  %133 = load ptr, ptr %132, align 8
  %134 = load ptr, ptr %13, align 8
  %135 = load ptr, ptr %14, align 8
  %136 = load i32, ptr %15, align 4
  %137 = call ptr @LLVMBuildInsertValue(ptr noundef %133, ptr noundef %134, ptr noundef %135, i32 noundef %136, ptr noundef @.str.5) #6
  store ptr %137, ptr %11, align 8
  br label %138

138:                                              ; preds = %130, %119
  %139 = load ptr, ptr %11, align 8
  store ptr %139, ptr %38, align 8
  %140 = load ptr, ptr %31, align 8
  %141 = load ptr, ptr %38, align 8
  %142 = getelementptr inbounds %struct.BEValue, ptr %37, i32 0, i32 3
  %143 = load ptr, ptr %142, align 8
  store ptr %140, ptr %21, align 8
  store ptr %141, ptr %22, align 8
  store ptr %143, ptr %23, align 8
  store i32 1, ptr %24, align 4
  %144 = load ptr, ptr %22, align 8
  %145 = call ptr @LLVMTypeOf(ptr noundef %144) #6
  %146 = call i32 @LLVMGetTypeKind(ptr noundef %145) #6
  %147 = icmp eq i32 %146, 13
  br i1 %147, label %148, label %186

148:                                              ; preds = %138
  %149 = load ptr, ptr %21, align 8
  %150 = load ptr, ptr @type_usz, align 8
  %151 = load i32, ptr %24, align 4
  %152 = zext i32 %151 to i64
  store ptr %149, ptr %17, align 8
  store ptr %150, ptr %18, align 8
  store i64 %152, ptr %19, align 8
  %153 = load ptr, ptr %18, align 8
  %154 = call ptr @type_lowering(ptr noundef %153)
  store ptr %154, ptr %18, align 8
  %155 = load ptr, ptr %17, align 8
  %156 = load ptr, ptr %18, align 8
  %157 = call ptr @llvm_get_type(ptr noundef %155, ptr noundef %156) #6
  %158 = load i64, ptr %19, align 8
  %159 = load ptr, ptr %18, align 8
  store ptr %159, ptr %4, align 8
  %160 = load ptr, ptr %4, align 8
  %161 = load i32, ptr %160, align 8
  store i32 %161, ptr %5, align 4
  %162 = load i32, ptr %5, align 4
  %163 = icmp eq i32 %162, 31
  br i1 %163, label %164, label %169

164:                                              ; preds = %148
  %165 = load ptr, ptr %4, align 8
  %166 = getelementptr inbounds %struct.Type_, ptr %165, i32 0, i32 1
  %167 = load ptr, ptr %166, align 8
  %168 = load i32, ptr %167, align 8
  store i32 %168, ptr %5, align 4
  br label %169

169:                                              ; preds = %164, %148
  %170 = load i32, ptr %5, align 4
  %171 = icmp uge i32 %170, 3
  br i1 %171, label %172, label %175

172:                                              ; preds = %169
  %173 = load i32, ptr %5, align 4
  %174 = icmp ule i32 %173, 7
  br label %175

175:                                              ; preds = %172, %169
  %176 = phi i1 [ false, %169 ], [ %174, %172 ]
  %177 = zext i1 %176 to i32
  %178 = call ptr @LLVMConstInt(ptr noundef %157, i64 noundef %158, i32 noundef %177) #6
  store ptr %178, ptr %25, align 8
  %179 = load ptr, ptr %21, align 8
  %180 = getelementptr inbounds %struct.GenContext_, ptr %179, i32 0, i32 8
  %181 = load ptr, ptr %180, align 8
  %182 = load ptr, ptr %22, align 8
  %183 = load ptr, ptr %23, align 8
  %184 = load ptr, ptr %25, align 8
  %185 = call ptr @LLVMBuildInsertElement(ptr noundef %181, ptr noundef %182, ptr noundef %183, ptr noundef %184, ptr noundef @.str.5) #6
  store ptr %185, ptr %20, align 8
  br label %194

186:                                              ; preds = %138
  %187 = load ptr, ptr %21, align 8
  %188 = getelementptr inbounds %struct.GenContext_, ptr %187, i32 0, i32 8
  %189 = load ptr, ptr %188, align 8
  %190 = load ptr, ptr %22, align 8
  %191 = load ptr, ptr %23, align 8
  %192 = load i32, ptr %24, align 4
  %193 = call ptr @LLVMBuildInsertValue(ptr noundef %189, ptr noundef %190, ptr noundef %191, i32 noundef %192, ptr noundef @.str.5) #6
  store ptr %193, ptr %20, align 8
  br label %194

194:                                              ; preds = %186, %175
  %195 = load ptr, ptr %20, align 8
  store ptr %195, ptr %38, align 8
  %196 = load ptr, ptr %32, align 8
  %197 = load ptr, ptr %38, align 8
  %198 = load ptr, ptr @type_anyptr, align 8
  call void @llvm_value_set(ptr noundef %196, ptr noundef %197, ptr noundef %198)
  br label %199

199:                                              ; preds = %194, %60
  ret void
}