; Function Attrs: nounwind uwtable
define internal fastcc void @llvm_emit_any_make(ptr noundef %0, ptr noundef %1, ptr nocapture readonly %.40.val) unnamed_addr #0 {
  %3 = alloca %struct.BEValue, align 8
  %4 = alloca %struct.BEValue, align 8
  %5 = getelementptr inbounds i8, ptr %.40.val, i64 8
  %6 = load ptr, ptr %5, align 8
  %7 = getelementptr inbounds i8, ptr %6, i64 16
  %8 = load i16, ptr %7, align 8
  %9 = and i16 %8, 255
  %10 = icmp eq i16 %9, 14
  br i1 %10, label %11, label %21

11:                                               ; preds = %2
  %12 = getelementptr inbounds i8, ptr %6, i64 32
  %13 = load ptr, ptr %12, align 8
  %14 = load ptr, ptr @type_void, align 8
  %15 = icmp eq ptr %13, %14
  br i1 %15, label %16, label %21

16:                                               ; preds = %11
  %17 = load ptr, ptr @type_anyptr, align 8
  %18 = tail call ptr @llvm_get_type(ptr noundef %0, ptr noundef %17) #8
  %19 = tail call ptr @LLVMConstNull(ptr noundef %18) #8
  %20 = load ptr, ptr @type_anyptr, align 8
  tail call void @llvm_value_set(ptr noundef %1, ptr noundef %19, ptr noundef %20) #8
  br label %83

21:                                               ; preds = %11, %2
  %22 = load ptr, ptr %.40.val, align 8
  call void @llvm_emit_expr(ptr noundef %0, ptr noundef nonnull %3, ptr noundef %22) #8
  call void @llvm_value_rvalue(ptr noundef %0, ptr noundef nonnull %3) #8
  call void @llvm_emit_expr(ptr noundef %0, ptr noundef nonnull %4, ptr noundef nonnull %6) #8
  call void @llvm_value_rvalue(ptr noundef %0, ptr noundef nonnull %4) #8
  %23 = load ptr, ptr @type_anyptr, align 8
  %24 = call ptr @llvm_get_type(ptr noundef %0, ptr noundef %23) #8
  %25 = call ptr @LLVMGetUndef(ptr noundef %24) #8
  %26 = getelementptr inbounds i8, ptr %3, i64 16
  %27 = load ptr, ptr %26, align 8
  %28 = call ptr @LLVMTypeOf(ptr noundef %25) #8
  %29 = call i32 @LLVMGetTypeKind(ptr noundef %28) #8
  %30 = icmp eq i32 %29, 13
  br i1 %30, label %31, label %49

31:                                               ; preds = %21
  %32 = load ptr, ptr @type_usz, align 8
  %33 = call fastcc ptr @type_lowering(ptr noundef %32)
  %34 = call ptr @llvm_get_type(ptr noundef %0, ptr noundef %33) #8
  %35 = load i32, ptr %33, align 8
  %36 = icmp eq i32 %35, 31
  br i1 %36, label %37, label %41

37:                                               ; preds = %31
  %38 = getelementptr inbounds i8, ptr %33, i64 8
  %39 = load ptr, ptr %38, align 8
  %40 = load i32, ptr %39, align 8
  br label %41

41:                                               ; preds = %37, %31
  %.067 = phi i32 [ %40, %37 ], [ %35, %31 ]
  %42 = add i32 %.067, -3
  %43 = icmp ult i32 %42, 5
  %44 = zext i1 %43 to i32
  %45 = call ptr @LLVMConstInt(ptr noundef %34, i64 noundef 0, i32 noundef %44) #8
  %46 = getelementptr inbounds i8, ptr %0, i64 64
  %47 = load ptr, ptr %46, align 8
  %48 = call ptr @LLVMBuildInsertElement(ptr noundef %47, ptr noundef %25, ptr noundef %27, ptr noundef %45, ptr noundef nonnull @.str.5) #8
  br label %53

49:                                               ; preds = %21
  %50 = getelementptr inbounds i8, ptr %0, i64 64
  %51 = load ptr, ptr %50, align 8
  %52 = call ptr @LLVMBuildInsertValue(ptr noundef %51, ptr noundef %25, ptr noundef %27, i32 noundef 0, ptr noundef nonnull @.str.5) #8
  br label %53

53:                                               ; preds = %49, %41
  %.068 = phi ptr [ %48, %41 ], [ %52, %49 ]
  %54 = getelementptr inbounds i8, ptr %4, i64 16
  %55 = load ptr, ptr %54, align 8
  %56 = call ptr @LLVMTypeOf(ptr noundef %.068) #8
  %57 = call i32 @LLVMGetTypeKind(ptr noundef %56) #8
  %58 = icmp eq i32 %57, 13
  br i1 %58, label %59, label %77

59:                                               ; preds = %53
  %60 = load ptr, ptr @type_usz, align 8
  %61 = call fastcc ptr @type_lowering(ptr noundef %60)
  %62 = call ptr @llvm_get_type(ptr noundef nonnull %0, ptr noundef %61) #8
  %63 = load i32, ptr %61, align 8
  %64 = icmp eq i32 %63, 31
  br i1 %64, label %65, label %69

65:                                               ; preds = %59
  %66 = getelementptr inbounds i8, ptr %61, i64 8
  %67 = load ptr, ptr %66, align 8
  %68 = load i32, ptr %67, align 8
  br label %69

69:                                               ; preds = %65, %59
  %.0 = phi i32 [ %68, %65 ], [ %63, %59 ]
  %70 = add i32 %.0, -3
  %71 = icmp ult i32 %70, 5
  %72 = zext i1 %71 to i32
  %73 = call ptr @LLVMConstInt(ptr noundef %62, i64 noundef 1, i32 noundef %72) #8
  %74 = getelementptr inbounds i8, ptr %0, i64 64
  %75 = load ptr, ptr %74, align 8
  %76 = call ptr @LLVMBuildInsertElement(ptr noundef %75, ptr noundef %.068, ptr noundef %55, ptr noundef %73, ptr noundef nonnull @.str.5) #8
  br label %81

77:                                               ; preds = %53
  %78 = getelementptr inbounds i8, ptr %0, i64 64
  %79 = load ptr, ptr %78, align 8
  %80 = call ptr @LLVMBuildInsertValue(ptr noundef %79, ptr noundef %.068, ptr noundef %55, i32 noundef 1, ptr noundef nonnull @.str.5) #8
  br label %81

81:                                               ; preds = %77, %69
  %.069 = phi ptr [ %76, %69 ], [ %80, %77 ]
  %82 = load ptr, ptr @type_anyptr, align 8
  call void @llvm_value_set(ptr noundef %1, ptr noundef %.069, ptr noundef %82) #8
  br label %83

83:                                               ; preds = %81, %16
  ret void
}